target datalayout = "e-m:e-p270:32:32-p271:32:32-p272:64:64-i64:64-i128:128-f80:128-n8:16:32:64-S128"
target triple = "x86_64-pc-linux-gnu"

%struct.nghttp2_hd_entry = type { %struct.nghttp2_hd_nv, %struct.nghttp2_nv, ptr, i32, i32 }
%struct.nghttp2_hd_nv = type { ptr, ptr, i32, i8 }
%struct.nghttp2_nv = type { ptr, ptr, i64, i64, i8 }
%struct.nghttp2_rcbuf = type { ptr, ptr, ptr, i64, i32 }
%struct.nghttp2_hd_context = type { %struct.nghttp2_hd_ringbuf, ptr, i64, i64, i32, i8 }
%struct.nghttp2_hd_ringbuf = type { ptr, i64, i64, i64 }
%struct.nghttp2_hd_static_entry = type { %struct.nghttp2_rcbuf, %struct.nghttp2_rcbuf, %struct.nghttp2_nv, i32, i32 }

; Function Attrs: nounwind uwtable
define internal ptr @hd_ringbuf_get(ptr noundef %0, i64 noundef %1) #0 {
  %3 = alloca ptr, align 8
  %4 = alloca i64, align 8
  store ptr %0, ptr %3, align 8, !tbaa !9
  store i64 %1, ptr %4, align 8, !tbaa !38
  %5 = load ptr, ptr %3, align 8, !tbaa !9
  %6 = getelementptr inbounds nuw %struct.nghttp2_hd_ringbuf, ptr %5, i32 0, i32 0
  %7 = load ptr, ptr %6, align 8, !tbaa !80
  %8 = load ptr, ptr %3, align 8, !tbaa !9
  %9 = getelementptr inbounds nuw %struct.nghttp2_hd_ringbuf, ptr %8, i32 0, i32 2
  %10 = load i64, ptr %9, align 8, !tbaa !81
  %11 = load i64, ptr %4, align 8, !tbaa !38
  %12 = add i64 %10, %11
  %13 = load ptr, ptr %3, align 8, !tbaa !9
  %14 = getelementptr inbounds nuw %struct.nghttp2_hd_ringbuf, ptr %13, i32 0, i32 1
  %15 = load i64, ptr %14, align 8, !tbaa !82
  %16 = and i64 %12, %15
  %17 = getelementptr inbounds nuw ptr, ptr %7, i64 %16
  %18 = load ptr, ptr %17, align 8, !tbaa !4
  ret ptr %18
}

; Function Attrs: nounwind uwtable
define dso_local void @nghttp2_hd_table_get(ptr dead_on_unwind noalias writable sret(%struct.nghttp2_hd_nv) align 8 %0, ptr noundef %1, i64 noundef %2) #0 {
  %4 = alloca ptr, align 8
  %5 = alloca i64, align 8
  %6 = alloca ptr, align 8
  store ptr %1, ptr %4, align 8, !tbaa !9
  store i64 %2, ptr %5, align 8, !tbaa !38
  %7 = load i64, ptr %5, align 8, !tbaa !38
  %8 = icmp uge i64 %7, 61
  br i1 %8, label %9, label %16

9:                                                ; preds = %3
  %10 = load ptr, ptr %4, align 8, !tbaa !9
  %11 = getelementptr inbounds nuw %struct.nghttp2_hd_context, ptr %10, i32 0, i32 0
  %12 = load i64, ptr %5, align 8, !tbaa !38
  %13 = sub i64 %12, 61
  %14 = call ptr @hd_ringbuf_get(ptr noundef %11, i64 noundef %13)
  %15 = getelementptr inbounds nuw %struct.nghttp2_hd_entry, ptr %14, i32 0, i32 0
  call void @llvm.memcpy.p0.p0.i64(ptr align 8 %0, ptr align 8 %15, i64 24, i1 false), !tbaa.struct !10
  br label %31

16:                                               ; preds = %3
  call void @llvm.lifetime.start.p0(i64 8, ptr %6) #6
  %17 = load i64, ptr %5, align 8, !tbaa !38
  %18 = getelementptr inbounds nuw [61 x %struct.nghttp2_hd_static_entry], ptr @static_table, i64 0, i64 %17
  store ptr %18, ptr %6, align 8, !tbaa !9
  %19 = getelementptr inbounds nuw %struct.nghttp2_hd_nv, ptr %0, i32 0, i32 0
  %20 = load ptr, ptr %6, align 8, !tbaa !9
  %21 = getelementptr inbounds nuw %struct.nghttp2_hd_static_entry, ptr %20, i32 0, i32 0
  store ptr %21, ptr %19, align 8, !tbaa !16
  %22 = getelementptr inbounds nuw %struct.nghttp2_hd_nv, ptr %0, i32 0, i32 1
  %23 = load ptr, ptr %6, align 8, !tbaa !9
  %24 = getelementptr inbounds nuw %struct.nghttp2_hd_static_entry, ptr %23, i32 0, i32 1
  store ptr %24, ptr %22, align 8, !tbaa !27
  %25 = getelementptr inbounds nuw %struct.nghttp2_hd_nv, ptr %0, i32 0, i32 2
  %26 = load ptr, ptr %6, align 8, !tbaa !9
  %27 = getelementptr inbounds nuw %struct.nghttp2_hd_static_entry, ptr %26, i32 0, i32 3
  %28 = load i32, ptr %27, align 8, !tbaa !77
  store i32 %28, ptr %25, align 8, !tbaa !79
  %29 = getelementptr inbounds nuw %struct.nghttp2_hd_nv, ptr %0, i32 0, i32 3
  store i8 0, ptr %29, align 4, !tbaa !30
  %30 = getelementptr i8, ptr %0, i64 21
  call void @llvm.memset.p0.i64(ptr align 1 %30, i8 0, i64 3, i1 false)
  call void @llvm.lifetime.end.p0(i64 8, ptr %6) #6
  br label %31

31:                                               ; preds = %16, %9
  ret void
}