; Function Attrs: mustprogress nofree norecurse nosync nounwind willreturn memory(readwrite, inaccessiblemem: none) uwtable
define dso_local void @nghttp2_hd_table_get(ptr dead_on_unwind noalias writable writeonly sret(%struct.nghttp2_hd_nv) align 8 captures(none) initializes((0, 24)) %0, ptr noundef readonly captures(none) %1, i64 noundef %2) local_unnamed_addr #4 {
  %4 = icmp ugt i64 %2, 60
  br i1 %4, label %5, label %16

5:                                                ; preds = %3
  %6 = add i64 %2, -61
  %7 = load ptr, ptr %1, align 8, !tbaa !40
  %8 = getelementptr inbounds nuw i8, ptr %1, i64 16
  %9 = load i64, ptr %8, align 8, !tbaa !63
  %10 = add i64 %6, %9
  %11 = getelementptr inbounds nuw i8, ptr %1, i64 8
  %12 = load i64, ptr %11, align 8, !tbaa !41
  %13 = and i64 %10, %12
  %14 = getelementptr inbounds nuw ptr, ptr %7, i64 %13
  %15 = load ptr, ptr %14, align 8, !tbaa !64
  tail call void @llvm.memcpy.p0.p0.i64(ptr noundef nonnull align 8 dereferenceable(24) %0, ptr noundef nonnull align 8 dereferenceable(24) %15, i64 24, i1 false), !tbaa.struct !4
  br label %24

16:                                               ; preds = %3
  %17 = getelementptr inbounds nuw [61 x %struct.nghttp2_hd_static_entry], ptr @static_table, i64 0, i64 %2
  store ptr %17, ptr %0, align 8, !tbaa !13
  %18 = getelementptr inbounds nuw i8, ptr %0, i64 8
  %19 = getelementptr inbounds nuw i8, ptr %17, i64 40
  store ptr %19, ptr %18, align 8, !tbaa !25
  %20 = getelementptr inbounds nuw i8, ptr %0, i64 16
  %21 = getelementptr inbounds nuw i8, ptr %17, i64 120
  %22 = load i32, ptr %21, align 8, !tbaa !75
  store i32 %22, ptr %20, align 8, !tbaa !77
  %23 = getelementptr inbounds nuw i8, ptr %0, i64 20
  store i32 0, ptr %23, align 4
  br label %24

24:                                               ; preds = %16, %5
  ret void
}